target datalayout = "e-m:e-p270:32:32-p271:32:32-p272:64:64-i64:64-i128:128-f80:128-n8:16:32:64-S128"
target triple = "x86_64-pc-linux-gnu"

@len = internal global i32 0, align 4
@max_input_size = internal global i64 0, align 8
@offset = internal global i32 0, align 4
@progress = internal global ptr null, align 8
@consumed_bytes = internal global i64 0, align 8
@.str.39 = private unnamed_addr constant [36 x i8] c"used more bytes than were available\00", align 1
@.str.40 = private unnamed_addr constant [47 x i8] c"pack too large for current definition of off_t\00", align 1
@.str.41 = private unnamed_addr constant [34 x i8] c"pack exceeds maximum allowed size\00", align 1

; Function Attrs: nounwind uwtable
define internal void @use(i32 noundef %0) #0 {
  %2 = alloca i32, align 4
  store i32 %0, ptr %2, align 4, !tbaa !4
  %3 = load i32, ptr %2, align 4, !tbaa !4
  %4 = load i32, ptr @len, align 4, !tbaa !4
  %5 = icmp ugt i32 %3, %4
  br i1 %5, label %6, label %7

6:                                                ; preds = %1
  call void (ptr, ...) @die(ptr noundef @.str.39) #12
  unreachable

7:                                                ; preds = %1
  %8 = load i32, ptr %2, align 4, !tbaa !4
  %9 = load i32, ptr @len, align 4, !tbaa !4
  %10 = sub i32 %9, %8
  store i32 %10, ptr @len, align 4, !tbaa !4
  %11 = load i32, ptr %2, align 4, !tbaa !4
  %12 = load i32, ptr @offset, align 4, !tbaa !4
  %13 = add i32 %12, %11
  store i32 %13, ptr @offset, align 4, !tbaa !4
  %14 = load i32, ptr %2, align 4, !tbaa !4
  %15 = sext i32 %14 to i64
  %16 = load i64, ptr @consumed_bytes, align 8, !tbaa !16
  %17 = sub nsw i64 9223372036854775807, %16
  %18 = icmp sgt i64 %15, %17
  br i1 %18, label %19, label %20

19:                                               ; preds = %7
  call void (ptr, ...) @die(ptr noundef @.str.40) #12
  unreachable

20:                                               ; preds = %7
  %21 = load i32, ptr %2, align 4, !tbaa !4
  %22 = sext i32 %21 to i64
  %23 = load i64, ptr @consumed_bytes, align 8, !tbaa !16
  %24 = add nsw i64 %23, %22
  store i64 %24, ptr @consumed_bytes, align 8, !tbaa !16
  %25 = load i64, ptr @max_input_size, align 8, !tbaa !16
  %26 = icmp ne i64 %25, 0
  br i1 %26, label %27, label %33

27:                                               ; preds = %20
  %28 = load i64, ptr @consumed_bytes, align 8, !tbaa !16
  %29 = load i64, ptr @max_input_size, align 8, !tbaa !16
  %30 = icmp sgt i64 %28, %29
  br i1 %30, label %31, label %33

31:                                               ; preds = %27
  %32 = call ptr @_(ptr noundef @.str.41)
  call void (ptr, ...) @die(ptr noundef %32) #12
  unreachable

33:                                               ; preds = %27, %20
  %34 = load ptr, ptr @progress, align 8, !tbaa !47
  %35 = load i64, ptr @consumed_bytes, align 8, !tbaa !16
  call void @display_throughput(ptr noundef %34, i64 noundef %35)
  ret void
}