; Function Attrs: nounwind uwtable
define internal fastcc void @use(i32 noundef %0) unnamed_addr #0 {
  %2 = load i32, ptr @len, align 4, !tbaa !9
  %3 = icmp ugt i32 %0, %2
  br i1 %3, label %4, label %5

4:                                                ; preds = %1
  tail call void (ptr, ...) @die(ptr noundef nonnull @.str.39) #16
  unreachable

5:                                                ; preds = %1
  %6 = sub nuw i32 %2, %0
  store i32 %6, ptr @len, align 4, !tbaa !9
  %7 = load i32, ptr @offset, align 4, !tbaa !9
  %8 = add i32 %7, %0
  store i32 %8, ptr @offset, align 4, !tbaa !9
  %9 = sext i32 %0 to i64
  %10 = load i64, ptr @consumed_bytes, align 8, !tbaa !16
  %11 = sub nsw i64 9223372036854775807, %10
  %12 = icmp slt i64 %11, %9
  br i1 %12, label %13, label %14

13:                                               ; preds = %5
  tail call void (ptr, ...) @die(ptr noundef nonnull @.str.40) #16
  unreachable

14:                                               ; preds = %5
  %15 = add nsw i64 %10, %9
  store i64 %15, ptr @consumed_bytes, align 8, !tbaa !16
  %16 = load i64, ptr @max_input_size, align 8, !tbaa !16
  %.not = icmp ne i64 %16, 0
  %17 = icmp sgt i64 %15, %16
  %or.cond = select i1 %.not, i1 %17, i1 false
  br i1 %or.cond, label %18, label %20

18:                                               ; preds = %14
  %19 = tail call fastcc ptr @_(ptr noundef nonnull @.str.41)
  tail call void (ptr, ...) @die(ptr noundef %19) #16
  unreachable

20:                                               ; preds = %14
  %21 = load ptr, ptr @progress, align 8, !tbaa !42
  tail call void @display_throughput(ptr noundef %21, i64 noundef %15) #14
  ret void
}